target datalayout = "e-m:e-p270:32:32-p271:32:32-p272:64:64-i64:64-i128:128-f80:128-n8:16:32:64-S128"
target triple = "x86_64-pc-linux-gnu"

@.str.202 = private unnamed_addr constant [21 x i8] c"../openssl/apps/ca.c\00", align 1

; Function Attrs: nounwind uwtable
define internal i32 @make_revoked(ptr noundef %0, ptr noundef %1) #0 {
  %3 = alloca ptr, align 8
  %4 = alloca ptr, align 8
  %5 = alloca ptr, align 8
  %6 = alloca i32, align 4
  %7 = alloca i32, align 4
  %8 = alloca i32, align 4
  %9 = alloca ptr, align 8
  %10 = alloca ptr, align 8
  %11 = alloca ptr, align 8
  %12 = alloca ptr, align 8
  store ptr %0, ptr %3, align 8, !tbaa !37
  store ptr %1, ptr %4, align 8, !tbaa !31
  call void @llvm.lifetime.start.p0(i64 8, ptr %5) #10
  store ptr null, ptr %5, align 8, !tbaa !31
  call void @llvm.lifetime.start.p0(i64 4, ptr %6) #10
  store i32 -1, ptr %6, align 4, !tbaa !4
  call void @llvm.lifetime.start.p0(i64 4, ptr %7) #10
  call void @llvm.lifetime.start.p0(i64 4, ptr %8) #10
  store i32 0, ptr %8, align 4, !tbaa !4
  call void @llvm.lifetime.start.p0(i64 8, ptr %9) #10
  store ptr null, ptr %9, align 8, !tbaa !70
  call void @llvm.lifetime.start.p0(i64 8, ptr %10) #10
  store ptr null, ptr %10, align 8, !tbaa !62
  call void @llvm.lifetime.start.p0(i64 8, ptr %11) #10
  store ptr null, ptr %11, align 8, !tbaa !62
  call void @llvm.lifetime.start.p0(i64 8, ptr %12) #10
  store ptr null, ptr %12, align 8, !tbaa !62
  %13 = load ptr, ptr %4, align 8, !tbaa !31
  %14 = call i32 @unpack_revinfo(ptr noundef %12, ptr noundef %6, ptr noundef %9, ptr noundef %10, ptr noundef %13)
  store i32 %14, ptr %7, align 4, !tbaa !4
  %15 = load i32, ptr %7, align 4, !tbaa !4
  %16 = icmp eq i32 %15, 0
  br i1 %16, label %17, label %18

17:                                               ; preds = %2
  br label %83

18:                                               ; preds = %2
  %19 = load ptr, ptr %3, align 8, !tbaa !37
  %20 = icmp ne ptr %19, null
  br i1 %20, label %21, label %27

21:                                               ; preds = %18
  %22 = load ptr, ptr %3, align 8, !tbaa !37
  %23 = load ptr, ptr %12, align 8, !tbaa !62
  %24 = call i32 @X509_REVOKED_set_revocationDate(ptr noundef %22, ptr noundef %23)
  %25 = icmp ne i32 %24, 0
  br i1 %25, label %27, label %26

26:                                               ; preds = %21
  br label %83

27:                                               ; preds = %21, %18
  %28 = load ptr, ptr %3, align 8, !tbaa !37
  %29 = icmp ne ptr %28, null
  br i1 %29, label %30, label %51

30:                                               ; preds = %27
  %31 = load i32, ptr %6, align 4, !tbaa !4
  %32 = icmp ne i32 %31, -1
  br i1 %32, label %33, label %51

33:                                               ; preds = %30
  %34 = call ptr @ASN1_ENUMERATED_new()
  store ptr %34, ptr %11, align 8, !tbaa !62
  %35 = load ptr, ptr %11, align 8, !tbaa !62
  %36 = icmp eq ptr %35, null
  br i1 %36, label %43, label %37

37:                                               ; preds = %33
  %38 = load ptr, ptr %11, align 8, !tbaa !62
  %39 = load i32, ptr %6, align 4, !tbaa !4
  %40 = sext i32 %39 to i64
  %41 = call i32 @ASN1_ENUMERATED_set(ptr noundef %38, i64 noundef %40)
  %42 = icmp ne i32 %41, 0
  br i1 %42, label %44, label %43

43:                                               ; preds = %37, %33
  br label %83

44:                                               ; preds = %37
  %45 = load ptr, ptr %3, align 8, !tbaa !37
  %46 = load ptr, ptr %11, align 8, !tbaa !62
  %47 = call i32 @X509_REVOKED_add1_ext_i2d(ptr noundef %45, i32 noundef 141, ptr noundef %46, i32 noundef 0, i64 noundef 0)
  %48 = icmp sle i32 %47, 0
  br i1 %48, label %49, label %50

49:                                               ; preds = %44
  br label %83

50:                                               ; preds = %44
  br label %51

51:                                               ; preds = %50, %30, %27
  %52 = load ptr, ptr %3, align 8, !tbaa !37
  %53 = icmp ne ptr %52, null
  br i1 %53, label %54, label %64

54:                                               ; preds = %51
  %55 = load ptr, ptr %10, align 8, !tbaa !62
  %56 = icmp ne ptr %55, null
  br i1 %56, label %57, label %64

57:                                               ; preds = %54
  %58 = load ptr, ptr %3, align 8, !tbaa !37
  %59 = load ptr, ptr %10, align 8, !tbaa !62
  %60 = call i32 @X509_REVOKED_add1_ext_i2d(ptr noundef %58, i32 noundef 142, ptr noundef %59, i32 noundef 0, i64 noundef 0)
  %61 = icmp sle i32 %60, 0
  br i1 %61, label %62, label %63

62:                                               ; preds = %57
  br label %83

63:                                               ; preds = %57
  br label %64

64:                                               ; preds = %63, %54, %51
  %65 = load ptr, ptr %3, align 8, !tbaa !37
  %66 = icmp ne ptr %65, null
  br i1 %66, label %67, label %77

67:                                               ; preds = %64
  %68 = load ptr, ptr %9, align 8, !tbaa !70
  %69 = icmp ne ptr %68, null
  br i1 %69, label %70, label %77

70:                                               ; preds = %67
  %71 = load ptr, ptr %3, align 8, !tbaa !37
  %72 = load ptr, ptr %9, align 8, !tbaa !70
  %73 = call i32 @X509_REVOKED_add1_ext_i2d(ptr noundef %71, i32 noundef 430, ptr noundef %72, i32 noundef 0, i64 noundef 0)
  %74 = icmp sle i32 %73, 0
  br i1 %74, label %75, label %76

75:                                               ; preds = %70
  br label %83

76:                                               ; preds = %70
  br label %77

77:                                               ; preds = %76, %67, %64
  %78 = load i32, ptr %6, align 4, !tbaa !4
  %79 = icmp ne i32 %78, -1
  br i1 %79, label %80, label %81

80:                                               ; preds = %77
  store i32 2, ptr %8, align 4, !tbaa !4
  br label %82

81:                                               ; preds = %77
  store i32 1, ptr %8, align 4, !tbaa !4
  br label %82

82:                                               ; preds = %81, %80
  br label %83

83:                                               ; preds = %82, %75, %62, %49, %43, %26, %17
  %84 = load ptr, ptr %5, align 8, !tbaa !31
  call void @CRYPTO_free(ptr noundef %84, ptr noundef @.str.202, i32 noundef 2480)
  %85 = load ptr, ptr %9, align 8, !tbaa !70
  call void @ASN1_OBJECT_free(ptr noundef %85)
  %86 = load ptr, ptr %10, align 8, !tbaa !62
  call void @ASN1_GENERALIZEDTIME_free(ptr noundef %86)
  %87 = load ptr, ptr %11, align 8, !tbaa !62
  call void @ASN1_ENUMERATED_free(ptr noundef %87)
  %88 = load ptr, ptr %12, align 8, !tbaa !62
  call void @ASN1_TIME_free(ptr noundef %88)
  %89 = load i32, ptr %8, align 4, !tbaa !4
  call void @llvm.lifetime.end.p0(i64 8, ptr %12) #10
  call void @llvm.lifetime.end.p0(i64 8, ptr %11) #10
  call void @llvm.lifetime.end.p0(i64 8, ptr %10) #10
  call void @llvm.lifetime.end.p0(i64 8, ptr %9) #10
  call void @llvm.lifetime.end.p0(i64 4, ptr %8) #10
  call void @llvm.lifetime.end.p0(i64 4, ptr %7) #10
  call void @llvm.lifetime.end.p0(i64 4, ptr %6) #10
  call void @llvm.lifetime.end.p0(i64 8, ptr %5) #10
  ret i32 %89
}