; Function Attrs: nounwind uwtable
define internal fastcc range(i32 0, 3) i32 @make_revoked(ptr noundef %0, ptr noundef %1) unnamed_addr #0 {
  %3 = alloca i32, align 4
  %4 = alloca ptr, align 8
  %5 = alloca ptr, align 8
  %6 = alloca ptr, align 8
  call void @llvm.lifetime.start.p0(i64 4, ptr nonnull %3) #12
  store i32 -1, ptr %3, align 4, !tbaa !11
  call void @llvm.lifetime.start.p0(i64 8, ptr nonnull %4) #12
  store ptr null, ptr %4, align 8, !tbaa !49
  call void @llvm.lifetime.start.p0(i64 8, ptr nonnull %5) #12
  store ptr null, ptr %5, align 8, !tbaa !51
  call void @llvm.lifetime.start.p0(i64 8, ptr nonnull %6) #12
  store ptr null, ptr %6, align 8, !tbaa !51
  %7 = call i32 @unpack_revinfo(ptr noundef nonnull %6, ptr noundef nonnull %3, ptr noundef nonnull %4, ptr noundef nonnull %5, ptr noundef %1)
  %8 = icmp eq i32 %7, 0
  br i1 %8, label %36, label %9

9:                                                ; preds = %2
  %.not38 = icmp eq ptr %0, null
  br i1 %.not38, label %.thread34, label %10

10:                                               ; preds = %9
  %11 = load ptr, ptr %6, align 8, !tbaa !51
  %12 = call i32 @X509_REVOKED_set_revocationDate(ptr noundef nonnull %0, ptr noundef %11) #12
  %.not = icmp eq i32 %12, 0
  br i1 %.not, label %36, label %13

13:                                               ; preds = %10
  %14 = load i32, ptr %3, align 4
  %.not39 = icmp eq i32 %14, -1
  br i1 %.not39, label %25, label %15

15:                                               ; preds = %13
  %16 = call ptr @ASN1_ENUMERATED_new() #12
  %17 = icmp eq ptr %16, null
  br i1 %17, label %36, label %18

18:                                               ; preds = %15
  %19 = load i32, ptr %3, align 4, !tbaa !11
  %20 = sext i32 %19 to i64
  %21 = call i32 @ASN1_ENUMERATED_set(ptr noundef nonnull %16, i64 noundef %20) #12
  %.not27 = icmp eq i32 %21, 0
  br i1 %.not27, label %36, label %22

22:                                               ; preds = %18
  %23 = call i32 @X509_REVOKED_add1_ext_i2d(ptr noundef nonnull %0, i32 noundef 141, ptr noundef nonnull %16, i32 noundef 0, i64 noundef 0) #12
  %24 = icmp slt i32 %23, 1
  br i1 %24, label %36, label %25

25:                                               ; preds = %22, %13
  %.1 = phi ptr [ %16, %22 ], [ null, %13 ]
  %26 = load ptr, ptr %5, align 8
  %.not40 = icmp eq ptr %26, null
  br i1 %.not40, label %30, label %27

27:                                               ; preds = %25
  %28 = call i32 @X509_REVOKED_add1_ext_i2d(ptr noundef nonnull %0, i32 noundef 142, ptr noundef nonnull %26, i32 noundef 0, i64 noundef 0) #12
  %29 = icmp slt i32 %28, 1
  br i1 %29, label %36, label %30

30:                                               ; preds = %27, %25
  %31 = load ptr, ptr %4, align 8
  %.not41 = icmp eq ptr %31, null
  br i1 %.not41, label %.thread34, label %32

32:                                               ; preds = %30
  %33 = call i32 @X509_REVOKED_add1_ext_i2d(ptr noundef nonnull %0, i32 noundef 430, ptr noundef nonnull %31, i32 noundef 0, i64 noundef 0) #12
  %34 = icmp slt i32 %33, 1
  br i1 %34, label %36, label %.thread34

.thread34:                                        ; preds = %9, %32, %30
  %.13337 = phi ptr [ %.1, %32 ], [ %.1, %30 ], [ null, %9 ]
  %35 = load i32, ptr %3, align 4, !tbaa !11
  %.not28 = icmp eq i32 %35, -1
  %. = select i1 %.not28, i32 1, i32 2
  br label %36

36:                                               ; preds = %.thread34, %32, %27, %22, %15, %18, %10, %2
  %.020 = phi i32 [ 0, %2 ], [ 0, %15 ], [ 0, %22 ], [ 0, %27 ], [ 0, %32 ], [ 0, %18 ], [ 0, %10 ], [ %., %.thread34 ]
  %.0 = phi ptr [ null, %2 ], [ null, %15 ], [ %16, %22 ], [ %.1, %27 ], [ %.1, %32 ], [ %16, %18 ], [ null, %10 ], [ %.13337, %.thread34 ]
  call void @CRYPTO_free(ptr noundef null, ptr noundef nonnull @.str.202, i32 noundef 2480) #12
  %37 = load ptr, ptr %4, align 8, !tbaa !49
  call void @ASN1_OBJECT_free(ptr noundef %37) #12
  %38 = load ptr, ptr %5, align 8, !tbaa !51
  call void @ASN1_GENERALIZEDTIME_free(ptr noundef %38) #12
  call void @ASN1_ENUMERATED_free(ptr noundef %.0) #12
  %39 = load ptr, ptr %6, align 8, !tbaa !51
  call void @ASN1_TIME_free(ptr noundef %39) #12
  call void @llvm.lifetime.end.p0(i64 8, ptr nonnull %6) #12
  call void @llvm.lifetime.end.p0(i64 8, ptr nonnull %5) #12
  call void @llvm.lifetime.end.p0(i64 8, ptr nonnull %4) #12
  call void @llvm.lifetime.end.p0(i64 4, ptr nonnull %3) #12
  ret i32 %.020
}